; Function Attrs: nofree norecurse nosync nounwind memory(argmem: read) uwtable
define range(i32 0, 2) i32 @Abc_ResCheckUnique(ptr noundef readonly captures(none) %0, i32 noundef %1, i32 noundef %2) local_unnamed_addr #4 {
  %4 = icmp sgt i32 %1, 0
  br i1 %4, label %.lr.ph.preheader, label %._crit_edge

.lr.ph.preheader:                                 ; preds = %3
  %wide.trip.count = zext nneg i32 %1 to i64
  br label %.lr.ph

5:                                                ; preds = %.lr.ph
  %indvars.iv.next = add nuw nsw i64 %indvars.iv, 1
  %exitcond.not = icmp eq i64 %indvars.iv.next, %wide.trip.count
  br i1 %exitcond.not, label %._crit_edge, label %.lr.ph, !llvm.loop !13

.lr.ph:                                           ; preds = %.lr.ph.preheader, %5
  %indvars.iv = phi i64 [ 0, %.lr.ph.preheader ], [ %indvars.iv.next, %5 ]
  %6 = getelementptr inbounds nuw i8, ptr %0, i64 %indvars.iv
  %7 = load i8, ptr %6, align 1
  %8 = sext i8 %7 to i32
  %9 = icmp eq i32 %2, %8
  br i1 %9, label %._crit_edge, label %5

._crit_edge:                                      ; preds = %.lr.ph, %5, %3
  %.06 = phi i32 [ 1, %3 ], [ 1, %5 ], [ 0, %.lr.ph ]
  ret i32 %.06
}